target datalayout = "e-m:e-p270:32:32-p271:32:32-p272:64:64-i64:64-i128:128-f80:128-n8:16:32:64-S128"
target triple = "x86_64-pc-linux-gnu"

%struct.MT = type { [624 x i32], ptr, i32 }

; Function Attrs: nounwind sspstrong uwtable
define internal void @next_state(ptr noundef %0) #0 {
  %2 = alloca ptr, align 8
  %3 = alloca ptr, align 8
  %4 = alloca i32, align 4
  store ptr %0, ptr %2, align 8, !tbaa !12
  call void @llvm.lifetime.start.p0(i64 8, ptr %3) #24
  %5 = load ptr, ptr %2, align 8, !tbaa !12
  %6 = getelementptr inbounds nuw %struct.MT, ptr %5, i32 0, i32 0
  %7 = getelementptr inbounds [624 x i32], ptr %6, i64 0, i64 0
  store ptr %7, ptr %3, align 8, !tbaa !59
  call void @llvm.lifetime.start.p0(i64 4, ptr %4) #24
  %8 = load ptr, ptr %2, align 8, !tbaa !12
  %9 = getelementptr inbounds nuw %struct.MT, ptr %8, i32 0, i32 2
  store i32 624, ptr %9, align 8, !tbaa !14
  %10 = load ptr, ptr %2, align 8, !tbaa !12
  %11 = getelementptr inbounds nuw %struct.MT, ptr %10, i32 0, i32 0
  %12 = getelementptr inbounds [624 x i32], ptr %11, i64 0, i64 0
  %13 = load ptr, ptr %2, align 8, !tbaa !12
  %14 = getelementptr inbounds nuw %struct.MT, ptr %13, i32 0, i32 1
  store ptr %12, ptr %14, align 8, !tbaa !18
  store i32 228, ptr %4, align 4, !tbaa !19
  br label %15

15:                                               ; preds = %42, %1
  %16 = load i32, ptr %4, align 4, !tbaa !19
  %17 = add i32 %16, -1
  store i32 %17, ptr %4, align 4, !tbaa !19
  %18 = icmp ne i32 %17, 0
  br i1 %18, label %19, label %45

19:                                               ; preds = %15
  %20 = load ptr, ptr %3, align 8, !tbaa !59
  %21 = getelementptr i32, ptr %20, i64 397
  %22 = load i32, ptr %21, align 4, !tbaa !19
  %23 = load ptr, ptr %3, align 8, !tbaa !59
  %24 = getelementptr i32, ptr %23, i64 0
  %25 = load i32, ptr %24, align 4, !tbaa !19
  %26 = and i32 %25, -2147483648
  %27 = load ptr, ptr %3, align 8, !tbaa !59
  %28 = getelementptr i32, ptr %27, i64 1
  %29 = load i32, ptr %28, align 4, !tbaa !19
  %30 = and i32 %29, 2147483647
  %31 = or i32 %26, %30
  %32 = lshr i32 %31, 1
  %33 = load ptr, ptr %3, align 8, !tbaa !59
  %34 = getelementptr i32, ptr %33, i64 1
  %35 = load i32, ptr %34, align 4, !tbaa !19
  %36 = and i32 %35, 1
  %37 = icmp ne i32 %36, 0
  %38 = select i1 %37, i32 -1727483681, i32 0
  %39 = xor i32 %32, %38
  %40 = xor i32 %22, %39
  %41 = load ptr, ptr %3, align 8, !tbaa !59
  store i32 %40, ptr %41, align 4, !tbaa !19
  br label %42

42:                                               ; preds = %19
  %43 = load ptr, ptr %3, align 8, !tbaa !59
  %44 = getelementptr i32, ptr %43, i32 1
  store ptr %44, ptr %3, align 8, !tbaa !59
  br label %15, !llvm.loop !83

45:                                               ; preds = %15
  store i32 397, ptr %4, align 4, !tbaa !19
  br label %46

46:                                               ; preds = %73, %45
  %47 = load i32, ptr %4, align 4, !tbaa !19
  %48 = add i32 %47, -1
  store i32 %48, ptr %4, align 4, !tbaa !19
  %49 = icmp ne i32 %48, 0
  br i1 %49, label %50, label %76

50:                                               ; preds = %46
  %51 = load ptr, ptr %3, align 8, !tbaa !59
  %52 = getelementptr i32, ptr %51, i64 -227
  %53 = load i32, ptr %52, align 4, !tbaa !19
  %54 = load ptr, ptr %3, align 8, !tbaa !59
  %55 = getelementptr i32, ptr %54, i64 0
  %56 = load i32, ptr %55, align 4, !tbaa !19
  %57 = and i32 %56, -2147483648
  %58 = load ptr, ptr %3, align 8, !tbaa !59
  %59 = getelementptr i32, ptr %58, i64 1
  %60 = load i32, ptr %59, align 4, !tbaa !19
  %61 = and i32 %60, 2147483647
  %62 = or i32 %57, %61
  %63 = lshr i32 %62, 1
  %64 = load ptr, ptr %3, align 8, !tbaa !59
  %65 = getelementptr i32, ptr %64, i64 1
  %66 = load i32, ptr %65, align 4, !tbaa !19
  %67 = and i32 %66, 1
  %68 = icmp ne i32 %67, 0
  %69 = select i1 %68, i32 -1727483681, i32 0
  %70 = xor i32 %63, %69
  %71 = xor i32 %53, %70
  %72 = load ptr, ptr %3, align 8, !tbaa !59
  store i32 %71, ptr %72, align 4, !tbaa !19
  br label %73

73:                                               ; preds = %50
  %74 = load ptr, ptr %3, align 8, !tbaa !59
  %75 = getelementptr i32, ptr %74, i32 1
  store ptr %75, ptr %3, align 8, !tbaa !59
  br label %46, !llvm.loop !84

76:                                               ; preds = %46
  %77 = load ptr, ptr %3, align 8, !tbaa !59
  %78 = getelementptr i32, ptr %77, i64 -227
  %79 = load i32, ptr %78, align 4, !tbaa !19
  %80 = load ptr, ptr %3, align 8, !tbaa !59
  %81 = getelementptr i32, ptr %80, i64 0
  %82 = load i32, ptr %81, align 4, !tbaa !19
  %83 = and i32 %82, -2147483648
  %84 = load ptr, ptr %2, align 8, !tbaa !12
  %85 = getelementptr inbounds nuw %struct.MT, ptr %84, i32 0, i32 0
  %86 = getelementptr [624 x i32], ptr %85, i64 0, i64 0
  %87 = load i32, ptr %86, align 8, !tbaa !19
  %88 = and i32 %87, 2147483647
  %89 = or i32 %83, %88
  %90 = lshr i32 %89, 1
  %91 = load ptr, ptr %2, align 8, !tbaa !12
  %92 = getelementptr inbounds nuw %struct.MT, ptr %91, i32 0, i32 0
  %93 = getelementptr [624 x i32], ptr %92, i64 0, i64 0
  %94 = load i32, ptr %93, align 8, !tbaa !19
  %95 = and i32 %94, 1
  %96 = icmp ne i32 %95, 0
  %97 = select i1 %96, i32 -1727483681, i32 0
  %98 = xor i32 %90, %97
  %99 = xor i32 %79, %98
  %100 = load ptr, ptr %3, align 8, !tbaa !59
  store i32 %99, ptr %100, align 4, !tbaa !19
  call void @llvm.lifetime.end.p0(i64 4, ptr %4) #24
  call void @llvm.lifetime.end.p0(i64 8, ptr %3) #24
  ret void
}

; Function Attrs: nounwind sspstrong uwtable
define internal i32 @genrand_int32(ptr noundef %0) #0 {
  %2 = alloca ptr, align 8
  %3 = alloca i32, align 4
  store ptr %0, ptr %2, align 8, !tbaa !12
  call void @llvm.lifetime.start.p0(i64 4, ptr %3) #24
  %4 = load ptr, ptr %2, align 8, !tbaa !12
  %5 = getelementptr inbounds nuw %struct.MT, ptr %4, i32 0, i32 2
  %6 = load i32, ptr %5, align 8, !tbaa !14
  %7 = add i32 %6, -1
  store i32 %7, ptr %5, align 8, !tbaa !14
  %8 = icmp sle i32 %7, 0
  br i1 %8, label %9, label %11

9:                                                ; preds = %1
  %10 = load ptr, ptr %2, align 8, !tbaa !12
  call void @next_state(ptr noundef %10)
  br label %11

11:                                               ; preds = %9, %1
  %12 = load ptr, ptr %2, align 8, !tbaa !12
  %13 = getelementptr inbounds nuw %struct.MT, ptr %12, i32 0, i32 1
  %14 = load ptr, ptr %13, align 8, !tbaa !18
  %15 = getelementptr i32, ptr %14, i32 1
  store ptr %15, ptr %13, align 8, !tbaa !18
  %16 = load i32, ptr %14, align 4, !tbaa !19
  store i32 %16, ptr %3, align 4, !tbaa !19
  %17 = load i32, ptr %3, align 4, !tbaa !19
  %18 = lshr i32 %17, 11
  %19 = load i32, ptr %3, align 4, !tbaa !19
  %20 = xor i32 %19, %18
  store i32 %20, ptr %3, align 4, !tbaa !19
  %21 = load i32, ptr %3, align 4, !tbaa !19
  %22 = shl i32 %21, 7
  %23 = and i32 %22, -1658038656
  %24 = load i32, ptr %3, align 4, !tbaa !19
  %25 = xor i32 %24, %23
  store i32 %25, ptr %3, align 4, !tbaa !19
  %26 = load i32, ptr %3, align 4, !tbaa !19
  %27 = shl i32 %26, 15
  %28 = and i32 %27, -272236544
  %29 = load i32, ptr %3, align 4, !tbaa !19
  %30 = xor i32 %29, %28
  store i32 %30, ptr %3, align 4, !tbaa !19
  %31 = load i32, ptr %3, align 4, !tbaa !19
  %32 = lshr i32 %31, 18
  %33 = load i32, ptr %3, align 4, !tbaa !19
  %34 = xor i32 %33, %32
  store i32 %34, ptr %3, align 4, !tbaa !19
  %35 = load i32, ptr %3, align 4, !tbaa !19
  call void @llvm.lifetime.end.p0(i64 4, ptr %3) #24
  ret i32 %35
}