; Function Attrs: nofree norecurse nosync nounwind sspstrong memory(read, argmem: readwrite, inaccessiblemem: none) uwtable
define internal fastcc i32 @genrand_int32(ptr noundef %0) unnamed_addr #3 {
  %2 = getelementptr inbounds nuw i8, ptr %0, i64 2504
  %3 = load i32, ptr %2, align 8, !tbaa !20
  %4 = add i32 %3, -1
  store i32 %4, ptr %2, align 8, !tbaa !20
  %5 = icmp slt i32 %4, 1
  br i1 %5, label %6, label %._crit_edge

._crit_edge:                                      ; preds = %1
  %.phi.trans.insert = getelementptr inbounds nuw i8, ptr %0, i64 2496
  %.pre = load ptr, ptr %.phi.trans.insert, align 8, !tbaa !21
  br label %49

6:                                                ; preds = %1
  store i32 624, ptr %2, align 8, !tbaa !20
  %.pre.i = load i32, ptr %0, align 4, !tbaa !22
  br label %7

7:                                                ; preds = %7, %6
  %8 = phi i32 [ %.pre.i, %6 ], [ %14, %7 ]
  %9 = phi i32 [ 227, %6 ], [ %22, %7 ]
  %.02230.i = phi ptr [ %0, %6 ], [ %13, %7 ]
  %10 = getelementptr i8, ptr %.02230.i, i64 1588
  %11 = load i32, ptr %10, align 4, !tbaa !22
  %12 = and i32 %8, -2147483648
  %13 = getelementptr i8, ptr %.02230.i, i64 4
  %14 = load i32, ptr %13, align 4, !tbaa !22
  %15 = and i32 %14, 2147483646
  %16 = or disjoint i32 %15, %12
  %17 = lshr exact i32 %16, 1
  %18 = and i32 %14, 1
  %.not29.i = icmp eq i32 %18, 0
  %19 = select i1 %.not29.i, i32 0, i32 -1727483681
  %20 = xor i32 %19, %11
  %21 = xor i32 %20, %17
  store i32 %21, ptr %.02230.i, align 4, !tbaa !22
  %22 = add nsw i32 %9, -1
  %.not.i = icmp eq i32 %22, 0
  br i1 %.not.i, label %.preheader.i, label %7, !llvm.loop !23

.preheader.i:                                     ; preds = %7, %.preheader.i
  %23 = phi i32 [ %29, %.preheader.i ], [ %14, %7 ]
  %24 = phi i32 [ %37, %.preheader.i ], [ 396, %7 ]
  %.12331.i = phi ptr [ %28, %.preheader.i ], [ %13, %7 ]
  %25 = getelementptr i8, ptr %.12331.i, i64 -908
  %26 = load i32, ptr %25, align 4, !tbaa !22
  %27 = and i32 %23, -2147483648
  %28 = getelementptr i8, ptr %.12331.i, i64 4
  %29 = load i32, ptr %28, align 4, !tbaa !22
  %30 = and i32 %29, 2147483646
  %31 = or disjoint i32 %30, %27
  %32 = lshr exact i32 %31, 1
  %33 = and i32 %29, 1
  %.not28.i = icmp eq i32 %33, 0
  %34 = select i1 %.not28.i, i32 0, i32 -1727483681
  %35 = xor i32 %34, %26
  %36 = xor i32 %35, %32
  store i32 %36, ptr %.12331.i, align 4, !tbaa !22
  %37 = add nsw i32 %24, -1
  %.not26.i = icmp eq i32 %37, 0
  br i1 %.not26.i, label %next_state.exit, label %.preheader.i, !llvm.loop !25

next_state.exit:                                  ; preds = %.preheader.i
  %38 = getelementptr i8, ptr %.12331.i, i64 -904
  %39 = load i32, ptr %38, align 4, !tbaa !22
  %40 = and i32 %29, -2147483648
  %41 = load i32, ptr %0, align 8, !tbaa !22
  %42 = and i32 %41, 2147483646
  %43 = or disjoint i32 %42, %40
  %44 = lshr exact i32 %43, 1
  %45 = and i32 %41, 1
  %.not27.i = icmp eq i32 %45, 0
  %46 = select i1 %.not27.i, i32 0, i32 -1727483681
  %47 = xor i32 %46, %39
  %48 = xor i32 %47, %44
  store i32 %48, ptr %28, align 4, !tbaa !22
  br label %49

49:                                               ; preds = %._crit_edge, %next_state.exit
  %50 = phi ptr [ %.pre, %._crit_edge ], [ %0, %next_state.exit ]
  %51 = getelementptr inbounds nuw i8, ptr %0, i64 2496
  %52 = getelementptr i8, ptr %50, i64 4
  store ptr %52, ptr %51, align 8, !tbaa !21
  %53 = load i32, ptr %50, align 4, !tbaa !22
  %54 = lshr i32 %53, 11
  %55 = xor i32 %54, %53
  %56 = shl i32 %55, 7
  %57 = and i32 %56, -1658038656
  %58 = xor i32 %57, %55
  %59 = shl i32 %58, 15
  %60 = and i32 %59, -272236544
  %61 = xor i32 %60, %58
  %62 = lshr i32 %61, 18
  %63 = xor i32 %62, %61
  ret i32 %63
}